target datalayout = "e-m:e-p270:32:32-p271:32:32-p272:64:64-i64:64-i128:128-f80:128-n8:16:32:64-S128"
target triple = "x86_64-pc-linux-gnu"

%class.GrowableArrayView = type { %class.GrowableArrayBase, ptr }
%class.GrowableArrayBase = type { i32, i32 }
%class.GrowableArrayIterator = type <{ ptr, i32, [4 x i8] }>

@_ZN9CodeCache16_allocable_heapsE = hidden global ptr null, align 8

; Function Attrs: mustprogress nounwind uwtable
define linkonce_odr hidden noundef nonnull align 8 dereferenceable(8) ptr @_ZNK17GrowableArrayViewIP8CodeHeapE2atEi(ptr noundef nonnull align 8 dereferenceable(16) %0, i32 noundef %1) #1 comdat align 2 {
  %3 = alloca ptr, align 8
  %4 = alloca i32, align 4
  store ptr %0, ptr %3, align 8
  store i32 %1, ptr %4, align 4
  %5 = load ptr, ptr %3, align 8
  %6 = getelementptr inbounds %class.GrowableArrayView, ptr %5, i32 0, i32 1
  %7 = load ptr, ptr %6, align 8
  %8 = load i32, ptr %4, align 4
  %9 = sext i32 %8 to i64
  %10 = getelementptr inbounds ptr, ptr %7, i64 %9
  ret ptr %10
}

; Function Attrs: mustprogress nounwind uwtable
define linkonce_odr hidden noundef i32 @_ZNK17GrowableArrayBase6lengthEv(ptr noundef nonnull align 4 dereferenceable(8) %0) #1 comdat align 2 {
  %2 = alloca ptr, align 8
  store ptr %0, ptr %2, align 8
  %3 = load ptr, ptr %2, align 8
  %4 = getelementptr inbounds %class.GrowableArrayBase, ptr %3, i32 0, i32 0
  %5 = load i32, ptr %4, align 4
  ret i32 %5
}

; Function Attrs: mustprogress nounwind uwtable
define linkonce_odr hidden void @_ZN21GrowableArrayIteratorIP8CodeHeapEC2EPK17GrowableArrayViewIS1_Ei(ptr noundef nonnull align 8 dereferenceable(12) %0, ptr noundef %1, i32 noundef %2) unnamed_addr #1 comdat align 2 {
  %4 = alloca ptr, align 8
  %5 = alloca ptr, align 8
  %6 = alloca i32, align 4
  store ptr %0, ptr %4, align 8
  store ptr %1, ptr %5, align 8
  store i32 %2, ptr %6, align 4
  %7 = load ptr, ptr %4, align 8
  %8 = getelementptr inbounds %class.GrowableArrayIterator, ptr %7, i32 0, i32 0
  %9 = load ptr, ptr %5, align 8
  store ptr %9, ptr %8, align 8
  %10 = getelementptr inbounds %class.GrowableArrayIterator, ptr %7, i32 0, i32 1
  %11 = load i32, ptr %6, align 4
  store i32 %11, ptr %10, align 8
  ret void
}

; Function Attrs: mustprogress nounwind uwtable
define linkonce_odr hidden noundef nonnull align 8 dereferenceable(12) ptr @_ZN21GrowableArrayIteratorIP8CodeHeapEppEv(ptr noundef nonnull align 8 dereferenceable(12) %0) #1 comdat align 2 {
  %2 = alloca ptr, align 8
  store ptr %0, ptr %2, align 8
  %3 = load ptr, ptr %2, align 8
  %4 = getelementptr inbounds %class.GrowableArrayIterator, ptr %3, i32 0, i32 1
  %5 = load i32, ptr %4, align 8
  %6 = add nsw i32 %5, 1
  store i32 %6, ptr %4, align 8
  ret ptr %3
}

; Function Attrs: mustprogress nounwind uwtable
define linkonce_odr hidden noundef ptr @_ZN21GrowableArrayIteratorIP8CodeHeapEdeEv(ptr noundef nonnull align 8 dereferenceable(12) %0) #1 comdat align 2 {
  %2 = alloca ptr, align 8
  store ptr %0, ptr %2, align 8
  %3 = load ptr, ptr %2, align 8
  %4 = getelementptr inbounds %class.GrowableArrayIterator, ptr %3, i32 0, i32 0
  %5 = load ptr, ptr %4, align 8
  %6 = getelementptr inbounds %class.GrowableArrayIterator, ptr %3, i32 0, i32 1
  %7 = load i32, ptr %6, align 8
  %8 = call noundef nonnull align 8 dereferenceable(8) ptr @_ZNK17GrowableArrayViewIP8CodeHeapE2atEi(ptr noundef nonnull align 8 dereferenceable(16) %5, i32 noundef %7)
  %9 = load ptr, ptr %8, align 8
  ret ptr %9
}

; Function Attrs: mustprogress nounwind uwtable
define linkonce_odr hidden noundef zeroext i1 @_ZN21GrowableArrayIteratorIP8CodeHeapEneERKS2_(ptr noundef nonnull align 8 dereferenceable(12) %0, ptr noundef nonnull align 8 dereferenceable(12) %1) #1 comdat align 2 {
  %3 = alloca ptr, align 8
  %4 = alloca ptr, align 8
  store ptr %0, ptr %3, align 8
  store ptr %1, ptr %4, align 8
  %5 = load ptr, ptr %3, align 8
  %6 = getelementptr inbounds %class.GrowableArrayIterator, ptr %5, i32 0, i32 1
  %7 = load i32, ptr %6, align 8
  %8 = load ptr, ptr %4, align 8
  %9 = getelementptr inbounds %class.GrowableArrayIterator, ptr %8, i32 0, i32 1
  %10 = load i32, ptr %9, align 8
  %11 = icmp ne i32 %7, %10
  ret i1 %11
}

; Function Attrs: mustprogress nounwind uwtable
define linkonce_odr hidden { ptr, i32 } @_ZNK17GrowableArrayViewIP8CodeHeapE3endEv(ptr noundef nonnull align 8 dereferenceable(16) %0) #1 comdat align 2 {
  %2 = alloca %class.GrowableArrayIterator, align 8
  %3 = alloca ptr, align 8
  store ptr %0, ptr %3, align 8
  %4 = load ptr, ptr %3, align 8
  %5 = call noundef i32 @_ZNK17GrowableArrayBase6lengthEv(ptr noundef nonnull align 4 dereferenceable(8) %4)
  call void @_ZN21GrowableArrayIteratorIP8CodeHeapEC2EPK17GrowableArrayViewIS1_Ei(ptr noundef nonnull align 8 dereferenceable(12) %2, ptr noundef %4, i32 noundef %5)
  %6 = load { ptr, i32 }, ptr %2, align 8
  ret { ptr, i32 } %6
}

; Function Attrs: mustprogress nounwind uwtable
define linkonce_odr hidden { ptr, i32 } @_ZNK17GrowableArrayViewIP8CodeHeapE5beginEv(ptr noundef nonnull align 8 dereferenceable(16) %0) #1 comdat align 2 {
  %2 = alloca %class.GrowableArrayIterator, align 8
  %3 = alloca ptr, align 8
  store ptr %0, ptr %3, align 8
  %4 = load ptr, ptr %3, align 8
  call void @_ZN21GrowableArrayIteratorIP8CodeHeapEC2EPK17GrowableArrayViewIS1_Ei(ptr noundef nonnull align 8 dereferenceable(12) %2, ptr noundef %4, i32 noundef 0)
  %5 = load { ptr, i32 }, ptr %2, align 8
  ret { ptr, i32 } %5
}

; Function Attrs: mustprogress nounwind uwtable
define hidden void @_ZN9CodeCache15print_usedSpaceEP12outputStream(ptr noundef %0) #1 align 2 {
  %2 = alloca ptr, align 8
  %3 = alloca %class.GrowableArrayIterator, align 8
  %4 = alloca %class.GrowableArrayIterator, align 8
  store ptr %0, ptr %2, align 8
  %5 = load ptr, ptr @_ZN9CodeCache16_allocable_heapsE, align 8
  %6 = call { ptr, i32 } @_ZNK17GrowableArrayViewIP8CodeHeapE5beginEv(ptr noundef nonnull align 8 dereferenceable(16) %5)
  %7 = getelementptr inbounds { ptr, i32 }, ptr %3, i32 0, i32 0
  %8 = extractvalue { ptr, i32 } %6, 0
  store ptr %8, ptr %7, align 8
  %9 = getelementptr inbounds { ptr, i32 }, ptr %3, i32 0, i32 1
  %10 = extractvalue { ptr, i32 } %6, 1
  store i32 %10, ptr %9, align 8
  br label %11

11:                                               ; preds = %22, %1
  %12 = load ptr, ptr @_ZN9CodeCache16_allocable_heapsE, align 8
  %13 = call { ptr, i32 } @_ZNK17GrowableArrayViewIP8CodeHeapE3endEv(ptr noundef nonnull align 8 dereferenceable(16) %12)
  %14 = getelementptr inbounds { ptr, i32 }, ptr %4, i32 0, i32 0
  %15 = extractvalue { ptr, i32 } %13, 0
  store ptr %15, ptr %14, align 8
  %16 = getelementptr inbounds { ptr, i32 }, ptr %4, i32 0, i32 1
  %17 = extractvalue { ptr, i32 } %13, 1
  store i32 %17, ptr %16, align 8
  %18 = call noundef zeroext i1 @_ZN21GrowableArrayIteratorIP8CodeHeapEneERKS2_(ptr noundef nonnull align 8 dereferenceable(12) %3, ptr noundef nonnull align 8 dereferenceable(12) %4)
  br i1 %18, label %19, label %24

19:                                               ; preds = %11
  %20 = load ptr, ptr %2, align 8
  %21 = call noundef ptr @_ZN21GrowableArrayIteratorIP8CodeHeapEdeEv(ptr noundef nonnull align 8 dereferenceable(12) %3)
  call void @_ZN13CodeHeapState15print_usedSpaceEP12outputStreamP8CodeHeap(ptr noundef %20, ptr noundef %21)
  br label %22

22:                                               ; preds = %19
  %23 = call noundef nonnull align 8 dereferenceable(12) ptr @_ZN21GrowableArrayIteratorIP8CodeHeapEppEv(ptr noundef nonnull align 8 dereferenceable(12) %3)
  br label %11, !llvm.loop !51

24:                                               ; preds = %11
  ret void
}