; Function Attrs: mustprogress nounwind uwtable
define hidden void @_ZN9CodeCache15print_usedSpaceEP12outputStream(ptr noundef %0) local_unnamed_addr #1 align 2 {
  %2 = load ptr, ptr @_ZN9CodeCache16_allocable_heapsE, align 8
  %3 = load i32, ptr %2, align 4
  %.not6 = icmp eq i32 %3, 0
  br i1 %.not6, label %._crit_edge, label %.lr.ph

.lr.ph:                                           ; preds = %1
  %4 = getelementptr inbounds i8, ptr %2, i64 8
  br label %5

5:                                                ; preds = %.lr.ph, %5
  %indvars.iv = phi i64 [ 0, %.lr.ph ], [ %indvars.iv.next, %5 ]
  %6 = load ptr, ptr %4, align 8
  %7 = getelementptr inbounds ptr, ptr %6, i64 %indvars.iv
  %8 = load ptr, ptr %7, align 8
  tail call void @_ZN13CodeHeapState15print_usedSpaceEP12outputStreamP8CodeHeap(ptr noundef %0, ptr noundef %8) #20
  %indvars.iv.next = add nuw nsw i64 %indvars.iv, 1
  %9 = load ptr, ptr @_ZN9CodeCache16_allocable_heapsE, align 8
  %10 = load i32, ptr %9, align 4
  %11 = zext i32 %10 to i64
  %.not = icmp eq i64 %indvars.iv.next, %11
  br i1 %.not, label %._crit_edge, label %5, !llvm.loop !75

._crit_edge:                                      ; preds = %5, %1
  ret void
}